A51 MACRO ASSEMBLER  ARITH_EXT_INT                                                        04/03/2026 11:40:43 PAGE     1


MACRO ASSEMBLER A51 V8.2.7.0
OBJECT MODULE PLACED IN arith_ext_int.obj
ASSEMBLER INVOKED BY: D:\ws\test\C51CC\_tools\keil\C51\BIN\A51.EXE arith_ext_int.SRC OBJECT(arith_ext_int.obj) 

LOC  OBJ            LINE     SOURCE

                       1     ; arith_ext_int.SRC generated from: arith_ext_int.c
                       2     ; COMPILER INVOKED BY:
                       3     ;        D:\ws\test\C51CC\_tools\keil\C51\BIN\C51.exe arith_ext_int.c OBJECT(arith_ext_int.
                             obj) SRC
                       4     
                       5     
                       6     NAME    ARITH_EXT_INT
                       7     
                       8     ?PR?_add_overflow_signed?ARITH_EXT_INT   SEGMENT CODE 
                       9     ?PR?_add_overflow_unsigned?ARITH_EXT_INT SEGMENT CODE 
                      10     ?PR?_add_with_const?ARITH_EXT_INT        SEGMENT CODE 
                      11     ?PR?_addu_with_const?ARITH_EXT_INT       SEGMENT CODE 
                      12     ?PR?_sub_borrow_signed?ARITH_EXT_INT     SEGMENT CODE 
                      13     ?PR?_sub_borrow_unsigned?ARITH_EXT_INT   SEGMENT CODE 
                      14     ?PR?_mul_signed?ARITH_EXT_INT            SEGMENT CODE 
                      15     ?PR?_mul_unsigned?ARITH_EXT_INT          SEGMENT CODE 
                      16     ?PR?_div_signed?ARITH_EXT_INT            SEGMENT CODE 
                      17     ?PR?_mod_signed?ARITH_EXT_INT            SEGMENT CODE 
                      18     ?PR?_div_unsigned?ARITH_EXT_INT          SEGMENT CODE 
                      19     ?PR?_mod_unsigned?ARITH_EXT_INT          SEGMENT CODE 
                      20     ?PR?_shl_int?ARITH_EXT_INT               SEGMENT CODE 
                      21     ?PR?_shr_signed?ARITH_EXT_INT            SEGMENT CODE 
                      22     ?PR?_shr_unsigned?ARITH_EXT_INT          SEGMENT CODE 
                      23     ?PR?_mixed_signed_unsigned?ARITH_EXT_INT SEGMENT CODE 
                      24     ?PR?_mixed_unsigned_signed?ARITH_EXT_INT SEGMENT CODE 
                      25     ?PR?add_min_max?ARITH_EXT_INT            SEGMENT CODE 
                      26     ?PR?sub_min_max?ARITH_EXT_INT            SEGMENT CODE 
                      27     ?PR?main?ARITH_EXT_INT                   SEGMENT CODE 
                      28             EXTRN   CODE (?C?IMUL)
                      29             EXTRN   CODE (?C?SIDIV)
                      30             EXTRN   CODE (?C?UIDIV)
                      31             EXTRN   CODE (?C_STARTUP)
                      32             PUBLIC  main
                      33             PUBLIC  sub_min_max
                      34             PUBLIC  add_min_max
                      35             PUBLIC  _mixed_unsigned_signed
                      36             PUBLIC  _mixed_signed_unsigned
                      37             PUBLIC  _shr_unsigned
                      38             PUBLIC  _shr_signed
                      39             PUBLIC  _shl_int
                      40             PUBLIC  _mod_unsigned
                      41             PUBLIC  _div_unsigned
                      42             PUBLIC  _mod_signed
                      43             PUBLIC  _div_signed
                      44             PUBLIC  _mul_unsigned
                      45             PUBLIC  _mul_signed
                      46             PUBLIC  _sub_borrow_unsigned
                      47             PUBLIC  _sub_borrow_signed
                      48             PUBLIC  _addu_with_const
                      49             PUBLIC  _add_with_const
                      50             PUBLIC  _add_overflow_unsigned
                      51             PUBLIC  _add_overflow_signed
                      52     ; int add_overflow_signed(int a,int b){ return a + b; }
                      53     
----                  54             RSEG  ?PR?_add_overflow_signed?ARITH_EXT_INT
0000                  55     _add_overflow_signed:
                      56             USING   0
                      57                             ; SOURCE LINE # 1
A51 MACRO ASSEMBLER  ARITH_EXT_INT                                                        04/03/2026 11:40:43 PAGE     2

                      58     ;---- Variable 'b?041' assigned to Register 'R4/R5' ----
                      59     ;---- Variable 'a?040' assigned to Register 'R6/R7' ----
0000 EF               60             MOV     A,R7
0001 2D               61             ADD     A,R5
0002 FF               62             MOV     R7,A
0003 EE               63             MOV     A,R6
0004 3C               64             ADDC    A,R4
0005 FE               65             MOV     R6,A
0006 22               66             RET     
                      67     ; END OF _add_overflow_signed
                      68     
                      69     ; unsigned int add_overflow_unsigned(unsigned int a,unsigned int b){ return a + b; }
                      70     
----                  71             RSEG  ?PR?_add_overflow_unsigned?ARITH_EXT_INT
0000                  72     _add_overflow_unsigned:
                      73             USING   0
                      74                             ; SOURCE LINE # 2
                      75     ;---- Variable 'b?143' assigned to Register 'R4/R5' ----
                      76     ;---- Variable 'a?142' assigned to Register 'R6/R7' ----
0000 EF               77             MOV     A,R7
0001 2D               78             ADD     A,R5
0002 FF               79             MOV     R7,A
0003 EE               80             MOV     A,R6
0004 3C               81             ADDC    A,R4
0005 FE               82             MOV     R6,A
0006 22               83             RET     
                      84     ; END OF _add_overflow_unsigned
                      85     
                      86     ; 
                      87     ; int add_with_const(int a){ return a + 32767; }
                      88     
----                  89             RSEG  ?PR?_add_with_const?ARITH_EXT_INT
0000                  90     _add_with_const:
                      91             USING   0
                      92                             ; SOURCE LINE # 4
                      93     ;---- Variable 'a?244' assigned to Register 'R6/R7' ----
0000 EF               94             MOV     A,R7
0001 24FF             95             ADD     A,#0FFH
0003 FF               96             MOV     R7,A
0004 EE               97             MOV     A,R6
0005 347F             98             ADDC    A,#07FH
0007 FE               99             MOV     R6,A
0008 22              100             RET     
                     101     ; END OF _add_with_const
                     102     
                     103     ; unsigned int addu_with_const(unsigned int a){ return a + (unsigned int)65535; }
                     104     
----                 105             RSEG  ?PR?_addu_with_const?ARITH_EXT_INT
0000                 106     _addu_with_const:
                     107             USING   0
                     108                             ; SOURCE LINE # 5
                     109     ;---- Variable 'a?345' assigned to Register 'R6/R7' ----
0000 EF              110             MOV     A,R7
0001 24FF            111             ADD     A,#0FFH
0003 FF              112             MOV     R7,A
0004 EE              113             MOV     A,R6
0005 34FF            114             ADDC    A,#0FFH
0007 FE              115             MOV     R6,A
0008 22              116             RET     
                     117     ; END OF _addu_with_const
                     118     
                     119     ; 
                     120     ; int sub_borrow_signed(int a,int b){ return a - b; }
                     121     
----                 122             RSEG  ?PR?_sub_borrow_signed?ARITH_EXT_INT
0000                 123     _sub_borrow_signed:
A51 MACRO ASSEMBLER  ARITH_EXT_INT                                                        04/03/2026 11:40:43 PAGE     3

                     124             USING   0
                     125                             ; SOURCE LINE # 7
                     126     ;---- Variable 'b?447' assigned to Register 'R4/R5' ----
                     127     ;---- Variable 'a?446' assigned to Register 'R6/R7' ----
0000 C3              128             CLR     C
0001 EF              129             MOV     A,R7
0002 9D              130             SUBB    A,R5
0003 FF              131             MOV     R7,A
0004 EE              132             MOV     A,R6
0005 9C              133             SUBB    A,R4
0006 FE              134             MOV     R6,A
0007 22              135             RET     
                     136     ; END OF _sub_borrow_signed
                     137     
                     138     ; unsigned int sub_borrow_unsigned(unsigned int a,unsigned int b){ return a - b; }
                     139     
----                 140             RSEG  ?PR?_sub_borrow_unsigned?ARITH_EXT_INT
0000                 141     _sub_borrow_unsigned:
                     142             USING   0
                     143                             ; SOURCE LINE # 8
                     144     ;---- Variable 'b?549' assigned to Register 'R4/R5' ----
                     145     ;---- Variable 'a?548' assigned to Register 'R6/R7' ----
0000 C3              146             CLR     C
0001 EF              147             MOV     A,R7
0002 9D              148             SUBB    A,R5
0003 FF              149             MOV     R7,A
0004 EE              150             MOV     A,R6
0005 9C              151             SUBB    A,R4
0006 FE              152             MOV     R6,A
0007 22              153             RET     
                     154     ; END OF _sub_borrow_unsigned
                     155     
                     156     ; 
                     157     ; int mul_signed(int a,int b){ return a * b; }
                     158     
----                 159             RSEG  ?PR?_mul_signed?ARITH_EXT_INT
0000                 160     _mul_signed:
                     161             USING   0
                     162                             ; SOURCE LINE # 10
                     163     ;---- Variable 'b?651' assigned to Register 'R4/R5' ----
                     164     ;---- Variable 'a?650' assigned to Register 'R6/R7' ----
0000 020000   F      165             LJMP    ?C?IMUL
                     166     ; END OF _mul_signed
                     167     
                     168     ; unsigned int mul_unsigned(unsigned int a,unsigned int b){ return a * b; }
                     169     
----                 170             RSEG  ?PR?_mul_unsigned?ARITH_EXT_INT
0000                 171     _mul_unsigned:
                     172             USING   0
                     173                             ; SOURCE LINE # 11
                     174     ;---- Variable 'b?753' assigned to Register 'R4/R5' ----
                     175     ;---- Variable 'a?752' assigned to Register 'R6/R7' ----
0000 020000   F      176             LJMP    ?C?IMUL
                     177     ; END OF _mul_unsigned
                     178     
                     179     ; 
                     180     ; int div_signed(int a,int b){ return a / b; }
                     181     
----                 182             RSEG  ?PR?_div_signed?ARITH_EXT_INT
0000                 183     _div_signed:
                     184             USING   0
                     185                             ; SOURCE LINE # 13
                     186     ;---- Variable 'b?855' assigned to Register 'R4/R5' ----
                     187     ;---- Variable 'a?854' assigned to Register 'R6/R7' ----
0000 020000   F      188             LJMP    ?C?SIDIV
                     189     ; END OF _div_signed
A51 MACRO ASSEMBLER  ARITH_EXT_INT                                                        04/03/2026 11:40:43 PAGE     4

                     190     
                     191     ; int mod_signed(int a,int b){ return a % b; }
                     192     
----                 193             RSEG  ?PR?_mod_signed?ARITH_EXT_INT
0000                 194     _mod_signed:
                     195             USING   0
                     196                             ; SOURCE LINE # 14
                     197     ;---- Variable 'b?957' assigned to Register 'R4/R5' ----
                     198     ;---- Variable 'a?956' assigned to Register 'R6/R7' ----
0000 120000   F      199             LCALL   ?C?SIDIV
0003 AE04            200             MOV     R6,AR4
0005 AF05            201             MOV     R7,AR5
0007 22              202             RET     
                     203     ; END OF _mod_signed
                     204     
                     205     ; unsigned int div_unsigned(unsigned int a,unsigned int b){ return a / b; }
                     206     
----                 207             RSEG  ?PR?_div_unsigned?ARITH_EXT_INT
0000                 208     _div_unsigned:
                     209             USING   0
                     210                             ; SOURCE LINE # 15
                     211     ;---- Variable 'b?1059' assigned to Register 'R4/R5' ----
                     212     ;---- Variable 'a?1058' assigned to Register 'R6/R7' ----
0000 020000   F      213             LJMP    ?C?UIDIV
                     214     ; END OF _div_unsigned
                     215     
                     216     ; unsigned int mod_unsigned(unsigned int a,unsigned int b){ return a % b; }
                     217     
----                 218             RSEG  ?PR?_mod_unsigned?ARITH_EXT_INT
0000                 219     _mod_unsigned:
                     220             USING   0
                     221                             ; SOURCE LINE # 16
                     222     ;---- Variable 'b?1161' assigned to Register 'R4/R5' ----
                     223     ;---- Variable 'a?1160' assigned to Register 'R6/R7' ----
0000 120000   F      224             LCALL   ?C?UIDIV
0003 AE04            225             MOV     R6,AR4
0005 AF05            226             MOV     R7,AR5
0007 22              227             RET     
                     228     ; END OF _mod_unsigned
                     229     
                     230     ; 
                     231     ; int shl_int(int a,int c){ return a << c; }
                     232     
----                 233             RSEG  ?PR?_shl_int?ARITH_EXT_INT
0000                 234     _shl_int:
                     235             USING   0
                     236                             ; SOURCE LINE # 18
                     237     ;---- Variable 'c?1263' assigned to Register 'R4/R5' ----
                     238     ;---- Variable 'a?1262' assigned to Register 'R6/R7' ----
0000 EF              239             MOV     A,R7
0001 A805            240             MOV     R0,AR5
0003 08              241             INC     R0
0004 8005            242             SJMP    ?C0022
0006                 243     ?C0021:
0006 C3              244             CLR     C
0007 33              245             RLC     A
0008 CE              246             XCH     A,R6
0009 33              247             RLC     A
000A CE              248             XCH     A,R6
000B                 249     ?C0022:
000B D8F9            250             DJNZ    R0,?C0021
000D FF              251             MOV     R7,A
000E 22              252             RET     
                     253     ; END OF _shl_int
                     254     
                     255     ; int shr_signed(int a,int c){ return a >> c; }
A51 MACRO ASSEMBLER  ARITH_EXT_INT                                                        04/03/2026 11:40:43 PAGE     5

                     256     
----                 257             RSEG  ?PR?_shr_signed?ARITH_EXT_INT
0000                 258     _shr_signed:
                     259             USING   0
                     260                             ; SOURCE LINE # 19
                     261     ;---- Variable 'c?1365' assigned to Register 'R4/R5' ----
                     262     ;---- Variable 'a?1364' assigned to Register 'R6/R7' ----
0000 EF              263             MOV     A,R7
0001 A805            264             MOV     R0,AR5
0003 08              265             INC     R0
0004 8006            266             SJMP    ?C0024
0006                 267     ?C0023:
0006 CE              268             XCH     A,R6
0007 A2E7            269             MOV     C,ACC.7
0009 13              270             RRC     A
000A CE              271             XCH     A,R6
000B 13              272             RRC     A
000C                 273     ?C0024:
000C D8F8            274             DJNZ    R0,?C0023
000E FF              275             MOV     R7,A
000F 22              276             RET     
                     277     ; END OF _shr_signed
                     278     
                     279     ; unsigned int shr_unsigned(unsigned int a,int c){ return a >> c; }
                     280     
----                 281             RSEG  ?PR?_shr_unsigned?ARITH_EXT_INT
0000                 282     _shr_unsigned:
                     283             USING   0
                     284                             ; SOURCE LINE # 20
                     285     ;---- Variable 'c?1467' assigned to Register 'R4/R5' ----
                     286     ;---- Variable 'a?1466' assigned to Register 'R6/R7' ----
0000 EF              287             MOV     A,R7
0001 A805            288             MOV     R0,AR5
0003 08              289             INC     R0
0004 8005            290             SJMP    ?C0026
0006                 291     ?C0025:
0006 CE              292             XCH     A,R6
0007 C3              293             CLR     C
0008 13              294             RRC     A
0009 CE              295             XCH     A,R6
000A 13              296             RRC     A
000B                 297     ?C0026:
000B D8F9            298             DJNZ    R0,?C0025
000D FF              299             MOV     R7,A
000E 22              300             RET     
                     301     ; END OF _shr_unsigned
                     302     
                     303     ; 
                     304     ; int mixed_signed_unsigned(int a,unsigned int b){ return a + b; }
                     305     
----                 306             RSEG  ?PR?_mixed_signed_unsigned?ARITH_EXT_INT
0000                 307     _mixed_signed_unsigned:
                     308             USING   0
                     309                             ; SOURCE LINE # 22
                     310     ;---- Variable 'b?1569' assigned to Register 'R4/R5' ----
                     311     ;---- Variable 'a?1568' assigned to Register 'R6/R7' ----
0000 EF              312             MOV     A,R7
0001 2D              313             ADD     A,R5
0002 FF              314             MOV     R7,A
0003 EE              315             MOV     A,R6
0004 3C              316             ADDC    A,R4
0005 FE              317             MOV     R6,A
0006 22              318             RET     
                     319     ; END OF _mixed_signed_unsigned
                     320     
                     321     ; unsigned int mixed_unsigned_signed(unsigned int a,int b){ return a + b; }
A51 MACRO ASSEMBLER  ARITH_EXT_INT                                                        04/03/2026 11:40:43 PAGE     6

                     322     
----                 323             RSEG  ?PR?_mixed_unsigned_signed?ARITH_EXT_INT
0000                 324     _mixed_unsigned_signed:
                     325             USING   0
                     326                             ; SOURCE LINE # 23
                     327     ;---- Variable 'b?1671' assigned to Register 'R4/R5' ----
                     328     ;---- Variable 'a?1670' assigned to Register 'R6/R7' ----
0000 EF              329             MOV     A,R7
0001 2D              330             ADD     A,R5
0002 FF              331             MOV     R7,A
0003 EE              332             MOV     A,R6
0004 3C              333             ADDC    A,R4
0005 FE              334             MOV     R6,A
0006 22              335             RET     
                     336     ; END OF _mixed_unsigned_signed
                     337     
                     338     ; 
                     339     ; int add_min_max(){ return 32767 + 1; }
                     340     
----                 341             RSEG  ?PR?add_min_max?ARITH_EXT_INT
0000                 342     add_min_max:
                     343             USING   0
                     344                             ; SOURCE LINE # 25
0000 7E80            345             MOV     R6,#080H
0002 7F00            346             MOV     R7,#00H
0004 22              347             RET     
                     348     ; END OF add_min_max
                     349     
                     350     ; int sub_min_max(){ return (-32768) - 1; }
                     351     
----                 352             RSEG  ?PR?sub_min_max?ARITH_EXT_INT
0000                 353     sub_min_max:
                     354             USING   0
                     355                             ; SOURCE LINE # 26
0000 7E7F            356             MOV     R6,#07FH
0002 7FFF            357             MOV     R7,#0FFH
0004 22              358             RET     
                     359     ; END OF sub_min_max
                     360     
                     361     ; 
                     362     ; 
                     363     ; int main()
                     364     
----                 365             RSEG  ?PR?main?ARITH_EXT_INT
0000                 366     main:
                     367             USING   0
                     368                             ; SOURCE LINE # 29
                     369     ; {
                     370                             ; SOURCE LINE # 30
                     371     ;     return 0;
                     372                             ; SOURCE LINE # 31
0000 E4              373             CLR     A
0001 FE              374             MOV     R6,A
0002 FF              375             MOV     R7,A
                     376     ; }
                     377                             ; SOURCE LINE # 32
0003 22              378             RET     
                     379     ; END OF main
                     380     
                     381             END
A51 MACRO ASSEMBLER  ARITH_EXT_INT                                                        04/03/2026 11:40:43 PAGE     7

SYMBOL TABLE LISTING
------ ----- -------


N A M E                                   T Y P E  V A L U E   ATTRIBUTES

?C0021 . . . . . . . . . . . . . . . .    C ADDR   0006H   R   SEG=?PR?_SHL_INT?ARITH_EXT_INT
?C0022 . . . . . . . . . . . . . . . .    C ADDR   000BH   R   SEG=?PR?_SHL_INT?ARITH_EXT_INT
?C0023 . . . . . . . . . . . . . . . .    C ADDR   0006H   R   SEG=?PR?_SHR_SIGNED?ARITH_EXT_INT
?C0024 . . . . . . . . . . . . . . . .    C ADDR   000CH   R   SEG=?PR?_SHR_SIGNED?ARITH_EXT_INT
?C0025 . . . . . . . . . . . . . . . .    C ADDR   0006H   R   SEG=?PR?_SHR_UNSIGNED?ARITH_EXT_INT
?C0026 . . . . . . . . . . . . . . . .    C ADDR   000BH   R   SEG=?PR?_SHR_UNSIGNED?ARITH_EXT_INT
?C?IMUL. . . . . . . . . . . . . . . .    C ADDR   -----       EXT
?C?SIDIV . . . . . . . . . . . . . . .    C ADDR   -----       EXT
?C?UIDIV . . . . . . . . . . . . . . .    C ADDR   -----       EXT
?C_STARTUP . . . . . . . . . . . . . .    C ADDR   -----       EXT
?PR?ADD_MIN_MAX?ARITH_EXT_INT. . . . .    C SEG    0005H       REL=UNIT
?PR?MAIN?ARITH_EXT_INT . . . . . . . .    C SEG    0004H       REL=UNIT
?PR?SUB_MIN_MAX?ARITH_EXT_INT. . . . .    C SEG    0005H       REL=UNIT
?PR?_ADDU_WITH_CONST?ARITH_EXT_INT . .    C SEG    0009H       REL=UNIT
?PR?_ADD_OVERFLOW_SIGNED?ARITH_EXT_INT    C SEG    0007H       REL=UNIT
?PR?_ADD_OVERFLOW_UNSIGNED?ARITH_EXT_INT  C SEG    0007H       REL=UNIT
?PR?_ADD_WITH_CONST?ARITH_EXT_INT. . .    C SEG    0009H       REL=UNIT
?PR?_DIV_SIGNED?ARITH_EXT_INT. . . . .    C SEG    0003H       REL=UNIT
?PR?_DIV_UNSIGNED?ARITH_EXT_INT. . . .    C SEG    0003H       REL=UNIT
?PR?_MIXED_SIGNED_UNSIGNED?ARITH_EXT_INT  C SEG    0007H       REL=UNIT
?PR?_MIXED_UNSIGNED_SIGNED?ARITH_EXT_INT  C SEG    0007H       REL=UNIT
?PR?_MOD_SIGNED?ARITH_EXT_INT. . . . .    C SEG    0008H       REL=UNIT
?PR?_MOD_UNSIGNED?ARITH_EXT_INT. . . .    C SEG    0008H       REL=UNIT
?PR?_MUL_SIGNED?ARITH_EXT_INT. . . . .    C SEG    0003H       REL=UNIT
?PR?_MUL_UNSIGNED?ARITH_EXT_INT. . . .    C SEG    0003H       REL=UNIT
?PR?_SHL_INT?ARITH_EXT_INT . . . . . .    C SEG    000FH       REL=UNIT
?PR?_SHR_SIGNED?ARITH_EXT_INT. . . . .    C SEG    0010H       REL=UNIT
?PR?_SHR_UNSIGNED?ARITH_EXT_INT. . . .    C SEG    000FH       REL=UNIT
?PR?_SUB_BORROW_SIGNED?ARITH_EXT_INT .    C SEG    0008H       REL=UNIT
?PR?_SUB_BORROW_UNSIGNED?ARITH_EXT_INT    C SEG    0008H       REL=UNIT
ACC. . . . . . . . . . . . . . . . . .    D ADDR   00E0H   A   
ADD_MIN_MAX. . . . . . . . . . . . . .    C ADDR   0000H   R   SEG=?PR?ADD_MIN_MAX?ARITH_EXT_INT
AR4. . . . . . . . . . . . . . . . . .    D ADDR   0004H   A   
AR5. . . . . . . . . . . . . . . . . .    D ADDR   0005H   A   
ARITH_EXT_INT. . . . . . . . . . . . .    N NUMB   -----       
MAIN . . . . . . . . . . . . . . . . .    C ADDR   0000H   R   SEG=?PR?MAIN?ARITH_EXT_INT
SUB_MIN_MAX. . . . . . . . . . . . . .    C ADDR   0000H   R   SEG=?PR?SUB_MIN_MAX?ARITH_EXT_INT
_ADDU_WITH_CONST . . . . . . . . . . .    C ADDR   0000H   R   SEG=?PR?_ADDU_WITH_CONST?ARITH_EXT_INT
_ADD_OVERFLOW_SIGNED . . . . . . . . .    C ADDR   0000H   R   SEG=?PR?_ADD_OVERFLOW_SIGNED?ARITH_EXT_INT
_ADD_OVERFLOW_UNSIGNED . . . . . . . .    C ADDR   0000H   R   SEG=?PR?_ADD_OVERFLOW_UNSIGNED?ARITH_EXT_INT
_ADD_WITH_CONST. . . . . . . . . . . .    C ADDR   0000H   R   SEG=?PR?_ADD_WITH_CONST?ARITH_EXT_INT
_DIV_SIGNED. . . . . . . . . . . . . .    C ADDR   0000H   R   SEG=?PR?_DIV_SIGNED?ARITH_EXT_INT
_DIV_UNSIGNED. . . . . . . . . . . . .    C ADDR   0000H   R   SEG=?PR?_DIV_UNSIGNED?ARITH_EXT_INT
_MIXED_SIGNED_UNSIGNED . . . . . . . .    C ADDR   0000H   R   SEG=?PR?_MIXED_SIGNED_UNSIGNED?ARITH_EXT_INT
_MIXED_UNSIGNED_SIGNED . . . . . . . .    C ADDR   0000H   R   SEG=?PR?_MIXED_UNSIGNED_SIGNED?ARITH_EXT_INT
_MOD_SIGNED. . . . . . . . . . . . . .    C ADDR   0000H   R   SEG=?PR?_MOD_SIGNED?ARITH_EXT_INT
_MOD_UNSIGNED. . . . . . . . . . . . .    C ADDR   0000H   R   SEG=?PR?_MOD_UNSIGNED?ARITH_EXT_INT
_MUL_SIGNED. . . . . . . . . . . . . .    C ADDR   0000H   R   SEG=?PR?_MUL_SIGNED?ARITH_EXT_INT
_MUL_UNSIGNED. . . . . . . . . . . . .    C ADDR   0000H   R   SEG=?PR?_MUL_UNSIGNED?ARITH_EXT_INT
_SHL_INT . . . . . . . . . . . . . . .    C ADDR   0000H   R   SEG=?PR?_SHL_INT?ARITH_EXT_INT
_SHR_SIGNED. . . . . . . . . . . . . .    C ADDR   0000H   R   SEG=?PR?_SHR_SIGNED?ARITH_EXT_INT
_SHR_UNSIGNED. . . . . . . . . . . . .    C ADDR   0000H   R   SEG=?PR?_SHR_UNSIGNED?ARITH_EXT_INT
_SUB_BORROW_SIGNED . . . . . . . . . .    C ADDR   0000H   R   SEG=?PR?_SUB_BORROW_SIGNED?ARITH_EXT_INT
_SUB_BORROW_UNSIGNED . . . . . . . . .    C ADDR   0000H   R   SEG=?PR?_SUB_BORROW_UNSIGNED?ARITH_EXT_INT


REGISTER BANK(S) USED: 0 


ASSEMBLY COMPLETE.  0 WARNING(S), 0 ERROR(S)
