; cmp_mix_branch.SRC generated from: cmp_mix_branch.c
; COMPILER INVOKED BY:
;        D:\ws\test\C51CC\_tools\keil\C51\BIN\C51.exe cmp_mix_branch.c OBJECT(cmp_mix_branch.obj) SRC


NAME	CMP_MIX_BRANCH

?PR?_b_lt?CMP_MIX_BRANCH                 SEGMENT CODE 
?PR?_b_le?CMP_MIX_BRANCH                 SEGMENT CODE 
?PR?_b_eq?CMP_MIX_BRANCH                 SEGMENT CODE 
?PR?_b_ne?CMP_MIX_BRANCH                 SEGMENT CODE 
?PR?_loop_lt?CMP_MIX_BRANCH              SEGMENT CODE 
?PR?main?CMP_MIX_BRANCH                  SEGMENT CODE 
	EXTRN	CODE (?C_STARTUP)
	PUBLIC	main
	PUBLIC	_loop_lt
	PUBLIC	_b_ne
	PUBLIC	_b_eq
	PUBLIC	_b_le
	PUBLIC	_b_lt
; typedef unsigned char u8;
; typedef unsigned int u16;
; 
; u8 b_lt(u8 i) {

	RSEG  ?PR?_b_lt?CMP_MIX_BRANCH
_b_lt:
	USING	0
			; SOURCE LINE # 4
;---- Variable 'i?040' assigned to Register 'R7' ----
;     if ((u16)i < 8) return 1;
			; SOURCE LINE # 5
	CLR  	C
	MOV  	A,R7
	SUBB 	A,#08H
	CLR  	A
	SUBB 	A,#00H
	JNC  	?C0001
	MOV  	R7,#01H
	RET  	
?C0001:
;     return 0;
			; SOURCE LINE # 6
	MOV  	R7,#00H
; }
			; SOURCE LINE # 7
?C0002:
	RET  	
; END OF _b_lt

; 
; u8 b_le(u8 i) {

	RSEG  ?PR?_b_le?CMP_MIX_BRANCH
_b_le:
	USING	0
			; SOURCE LINE # 9
;---- Variable 'i?141' assigned to Register 'R7' ----
;     if ((u16)i <= 8) return 1;
			; SOURCE LINE # 10
	SETB 	C
	MOV  	A,R7
	SUBB 	A,#08H
	CLR  	A
	SUBB 	A,#00H
	JNC  	?C0003
	MOV  	R7,#01H
	RET  	
?C0003:
;     return 0;
			; SOURCE LINE # 11
	MOV  	R7,#00H
; }
			; SOURCE LINE # 12
?C0004:
	RET  	
; END OF _b_le

; 
; u8 b_eq(u8 i) {

	RSEG  ?PR?_b_eq?CMP_MIX_BRANCH
_b_eq:
	USING	0
			; SOURCE LINE # 14
;---- Variable 'i?242' assigned to Register 'R7' ----
;     if ((u16)i == 3) return 1;
			; SOURCE LINE # 15
	MOV  	A,R7
	XRL  	A,#03H
	JNZ  	?C0005
	MOV  	R7,#01H
	RET  	
?C0005:
;     return 0;
			; SOURCE LINE # 16
	MOV  	R7,#00H
; }
			; SOURCE LINE # 17
?C0006:
	RET  	
; END OF _b_eq

; 
; u8 b_ne(u8 i) {

	RSEG  ?PR?_b_ne?CMP_MIX_BRANCH
_b_ne:
	USING	0
			; SOURCE LINE # 19
;---- Variable 'i?343' assigned to Register 'R7' ----
;     if ((u16)i != 3) return 1;
			; SOURCE LINE # 20
	MOV  	A,R7
	XRL  	A,#03H
	JZ   	?C0007
	MOV  	R7,#01H
	RET  	
?C0007:
;     return 0;
			; SOURCE LINE # 21
	MOV  	R7,#00H
; }
			; SOURCE LINE # 22
?C0008:
	RET  	
; END OF _b_ne

; 
; u8 loop_lt(u8 start) {

	RSEG  ?PR?_loop_lt?CMP_MIX_BRANCH
_loop_lt:
	USING	0
			; SOURCE LINE # 24
;---- Variable 'start?444' assigned to Register 'R7' ----
;     u8 i = start;
			; SOURCE LINE # 25
;---- Variable 'i?445' assigned to Register 'R7' ----
?C0009:
;     while ((u16)i < 8) {
			; SOURCE LINE # 26
	MOV  	A,R7
	CLR  	C
	SUBB 	A,#08H
	CLR  	A
	SUBB 	A,#00H
	JNC  	?C0010
;         i = i + 1;
			; SOURCE LINE # 27
	INC  	R7
;     }
			; SOURCE LINE # 28
	SJMP 	?C0009
?C0010:
;     return i;
			; SOURCE LINE # 29
; }
			; SOURCE LINE # 30
	RET  	
; END OF _loop_lt

; 
; int main()

	RSEG  ?PR?main?CMP_MIX_BRANCH
main:
	USING	0
			; SOURCE LINE # 32
; {
			; SOURCE LINE # 33
;     return 0;
			; SOURCE LINE # 34
	CLR  	A
	MOV  	R6,A
	MOV  	R7,A
; }
			; SOURCE LINE # 35
	RET  	
; END OF main

	END
