A51 MACRO ASSEMBLER  CMP_UNSIGNED_INT                                                     04/03/2026 11:40:45 PAGE     1


MACRO ASSEMBLER A51 V8.2.7.0
OBJECT MODULE PLACED IN cmp_unsigned_int.obj
ASSEMBLER INVOKED BY: D:\ws\test\C51CC\_tools\keil\C51\BIN\A51.EXE cmp_unsigned_int.SRC OBJECT(cmp_unsigned_int.obj) 

LOC  OBJ            LINE     SOURCE

                       1     ; cmp_unsigned_int.SRC generated from: cmp_unsigned_int.c
                       2     ; COMPILER INVOKED BY:
                       3     ;        D:\ws\test\C51CC\_tools\keil\C51\BIN\C51.exe cmp_unsigned_int.c OBJECT(cmp_unsigne
                             d_int.obj) SRC
                       4     
                       5     
                       6     NAME    CMP_UNSIGNED_INT
                       7     
                       8     ?PR?_cmp_unsigned_lt?CMP_UNSIGNED_INT    SEGMENT CODE 
                       9     ?PR?_cmp_unsigned_le?CMP_UNSIGNED_INT    SEGMENT CODE 
                      10     ?PR?_cmp_unsigned_gt?CMP_UNSIGNED_INT    SEGMENT CODE 
                      11     ?PR?_cmp_unsigned_ge?CMP_UNSIGNED_INT    SEGMENT CODE 
                      12     ?PR?_cmp_unsigned_eq?CMP_UNSIGNED_INT    SEGMENT CODE 
                      13     ?PR?_cmp_unsigned_ne?CMP_UNSIGNED_INT    SEGMENT CODE 
                      14     ?PR?main?CMP_UNSIGNED_INT                SEGMENT CODE 
                      15             EXTRN   CODE (?C_STARTUP)
                      16             PUBLIC  main
                      17             PUBLIC  _cmp_unsigned_ne
                      18             PUBLIC  _cmp_unsigned_eq
                      19             PUBLIC  _cmp_unsigned_ge
                      20             PUBLIC  _cmp_unsigned_gt
                      21             PUBLIC  _cmp_unsigned_le
                      22             PUBLIC  _cmp_unsigned_lt
                      23     ; unsigned int cmp_unsigned_lt(unsigned int a,unsigned int b){ return a < b; }
                      24     
----                  25             RSEG  ?PR?_cmp_unsigned_lt?CMP_UNSIGNED_INT
0000                  26     _cmp_unsigned_lt:
                      27             USING   0
                      28                             ; SOURCE LINE # 1
                      29     ;---- Variable 'b?041' assigned to Register 'R4/R5' ----
                      30     ;---- Variable 'a?040' assigned to Register 'R6/R7' ----
0000 C3               31             CLR     C
0001 EF               32             MOV     A,R7
0002 9D               33             SUBB    A,R5
0003 EE               34             MOV     A,R6
0004 9C               35             SUBB    A,R4
0005 7E00             36             MOV     R6,#00H
0007 5003             37             JNC     ?C0001
0009 7F01             38             MOV     R7,#01H
000B 22               39             RET     
000C                  40     ?C0001:
000C 7F00             41             MOV     R7,#00H
000E                  42     ?C0002:
000E 22               43             RET     
                      44     ; END OF _cmp_unsigned_lt
                      45     
                      46     ; unsigned int cmp_unsigned_le(unsigned int a,unsigned int b){ return a <= b; }
                      47     
----                  48             RSEG  ?PR?_cmp_unsigned_le?CMP_UNSIGNED_INT
0000                  49     _cmp_unsigned_le:
                      50             USING   0
                      51                             ; SOURCE LINE # 2
                      52     ;---- Variable 'b?143' assigned to Register 'R4/R5' ----
                      53     ;---- Variable 'a?142' assigned to Register 'R6/R7' ----
0000 D3               54             SETB    C
0001 EF               55             MOV     A,R7
0002 9D               56             SUBB    A,R5
0003 EE               57             MOV     A,R6
A51 MACRO ASSEMBLER  CMP_UNSIGNED_INT                                                     04/03/2026 11:40:45 PAGE     2

0004 9C               58             SUBB    A,R4
0005 7E00             59             MOV     R6,#00H
0007 5003             60             JNC     ?C0004
0009 7F01             61             MOV     R7,#01H
000B 22               62             RET     
000C                  63     ?C0004:
000C 7F00             64             MOV     R7,#00H
000E                  65     ?C0005:
000E 22               66             RET     
                      67     ; END OF _cmp_unsigned_le
                      68     
                      69     ; unsigned int cmp_unsigned_gt(unsigned int a,unsigned int b){ return a > b; }
                      70     
----                  71             RSEG  ?PR?_cmp_unsigned_gt?CMP_UNSIGNED_INT
0000                  72     _cmp_unsigned_gt:
                      73             USING   0
                      74                             ; SOURCE LINE # 3
                      75     ;---- Variable 'b?245' assigned to Register 'R4/R5' ----
                      76     ;---- Variable 'a?244' assigned to Register 'R6/R7' ----
0000 D3               77             SETB    C
0001 EF               78             MOV     A,R7
0002 9D               79             SUBB    A,R5
0003 EE               80             MOV     A,R6
0004 9C               81             SUBB    A,R4
0005 7E00             82             MOV     R6,#00H
0007 4003             83             JC      ?C0007
0009 7F01             84             MOV     R7,#01H
000B 22               85             RET     
000C                  86     ?C0007:
000C 7F00             87             MOV     R7,#00H
000E                  88     ?C0008:
000E 22               89             RET     
                      90     ; END OF _cmp_unsigned_gt
                      91     
                      92     ; unsigned int cmp_unsigned_ge(unsigned int a,unsigned int b){ return a >= b; }
                      93     
----                  94             RSEG  ?PR?_cmp_unsigned_ge?CMP_UNSIGNED_INT
0000                  95     _cmp_unsigned_ge:
                      96             USING   0
                      97                             ; SOURCE LINE # 4
                      98     ;---- Variable 'b?347' assigned to Register 'R4/R5' ----
                      99     ;---- Variable 'a?346' assigned to Register 'R6/R7' ----
0000 C3              100             CLR     C
0001 EF              101             MOV     A,R7
0002 9D              102             SUBB    A,R5
0003 EE              103             MOV     A,R6
0004 9C              104             SUBB    A,R4
0005 7E00            105             MOV     R6,#00H
0007 4003            106             JC      ?C0010
0009 7F01            107             MOV     R7,#01H
000B 22              108             RET     
000C                 109     ?C0010:
000C 7F00            110             MOV     R7,#00H
000E                 111     ?C0011:
000E 22              112             RET     
                     113     ; END OF _cmp_unsigned_ge
                     114     
                     115     ; unsigned int cmp_unsigned_eq(unsigned int a,unsigned int b){ return a == b; }
                     116     
----                 117             RSEG  ?PR?_cmp_unsigned_eq?CMP_UNSIGNED_INT
0000                 118     _cmp_unsigned_eq:
                     119             USING   0
                     120                             ; SOURCE LINE # 5
                     121     ;---- Variable 'b?449' assigned to Register 'R4/R5' ----
                     122     ;---- Variable 'a?448' assigned to Register 'R6/R7' ----
0000 EF              123             MOV     A,R7
A51 MACRO ASSEMBLER  CMP_UNSIGNED_INT                                                     04/03/2026 11:40:45 PAGE     3

0001 B50509          124             CJNE    A,AR5,?C0013
0004 EE              125             MOV     A,R6
0005 B50405          126             CJNE    A,AR4,?C0013
0008 7E00            127             MOV     R6,#00H
000A 7F01            128             MOV     R7,#01H
000C 22              129             RET     
000D                 130     ?C0013:
000D 7E00            131             MOV     R6,#00H
000F 7F00            132             MOV     R7,#00H
0011                 133     ?C0014:
0011 22              134             RET     
                     135     ; END OF _cmp_unsigned_eq
                     136     
                     137     ; unsigned int cmp_unsigned_ne(unsigned int a,unsigned int b){ return a != b; }
                     138     
----                 139             RSEG  ?PR?_cmp_unsigned_ne?CMP_UNSIGNED_INT
0000                 140     _cmp_unsigned_ne:
                     141             USING   0
                     142                             ; SOURCE LINE # 6
                     143     ;---- Variable 'b?551' assigned to Register 'R4/R5' ----
                     144     ;---- Variable 'a?550' assigned to Register 'R6/R7' ----
0000 EF              145             MOV     A,R7
0001 6D              146             XRL     A,R5
0002 7002            147             JNZ     ?C0021
0004 EE              148             MOV     A,R6
0005 6C              149             XRL     A,R4
0006                 150     ?C0021:
0006 7E00            151             MOV     R6,#00H
0008 6003            152             JZ      ?C0016
000A 7F01            153             MOV     R7,#01H
000C 22              154             RET     
000D                 155     ?C0016:
000D 7F00            156             MOV     R7,#00H
000F                 157     ?C0017:
000F 22              158             RET     
                     159     ; END OF _cmp_unsigned_ne
                     160     
                     161     ; 
                     162     ; int main()
                     163     
----                 164             RSEG  ?PR?main?CMP_UNSIGNED_INT
0000                 165     main:
                     166             USING   0
                     167                             ; SOURCE LINE # 8
                     168     ; {
                     169                             ; SOURCE LINE # 9
                     170     ;     return 0;
                     171                             ; SOURCE LINE # 10
0000 E4              172             CLR     A
0001 FE              173             MOV     R6,A
0002 FF              174             MOV     R7,A
                     175     ; }                     ; SOURCE LINE # 11
0003 22              176             RET     
                     177     ; END OF main
                     178     
                     179             END
A51 MACRO ASSEMBLER  CMP_UNSIGNED_INT                                                     04/03/2026 11:40:45 PAGE     4

SYMBOL TABLE LISTING
------ ----- -------


N A M E                                T Y P E  V A L U E   ATTRIBUTES

?C0001. . . . . . . . . . . . . . . .  C ADDR   000CH   R   SEG=?PR?_CMP_UNSIGNED_LT?CMP_UNSIGNED_INT
?C0002. . . . . . . . . . . . . . . .  C ADDR   000EH   R   SEG=?PR?_CMP_UNSIGNED_LT?CMP_UNSIGNED_INT
?C0004. . . . . . . . . . . . . . . .  C ADDR   000CH   R   SEG=?PR?_CMP_UNSIGNED_LE?CMP_UNSIGNED_INT
?C0005. . . . . . . . . . . . . . . .  C ADDR   000EH   R   SEG=?PR?_CMP_UNSIGNED_LE?CMP_UNSIGNED_INT
?C0007. . . . . . . . . . . . . . . .  C ADDR   000CH   R   SEG=?PR?_CMP_UNSIGNED_GT?CMP_UNSIGNED_INT
?C0008. . . . . . . . . . . . . . . .  C ADDR   000EH   R   SEG=?PR?_CMP_UNSIGNED_GT?CMP_UNSIGNED_INT
?C0010. . . . . . . . . . . . . . . .  C ADDR   000CH   R   SEG=?PR?_CMP_UNSIGNED_GE?CMP_UNSIGNED_INT
?C0011. . . . . . . . . . . . . . . .  C ADDR   000EH   R   SEG=?PR?_CMP_UNSIGNED_GE?CMP_UNSIGNED_INT
?C0013. . . . . . . . . . . . . . . .  C ADDR   000DH   R   SEG=?PR?_CMP_UNSIGNED_EQ?CMP_UNSIGNED_INT
?C0014. . . . . . . . . . . . . . . .  C ADDR   0011H   R   SEG=?PR?_CMP_UNSIGNED_EQ?CMP_UNSIGNED_INT
?C0016. . . . . . . . . . . . . . . .  C ADDR   000DH   R   SEG=?PR?_CMP_UNSIGNED_NE?CMP_UNSIGNED_INT
?C0017. . . . . . . . . . . . . . . .  C ADDR   000FH   R   SEG=?PR?_CMP_UNSIGNED_NE?CMP_UNSIGNED_INT
?C0021. . . . . . . . . . . . . . . .  C ADDR   0006H   R   SEG=?PR?_CMP_UNSIGNED_NE?CMP_UNSIGNED_INT
?C_STARTUP. . . . . . . . . . . . . .  C ADDR   -----       EXT
?PR?MAIN?CMP_UNSIGNED_INT . . . . . .  C SEG    0004H       REL=UNIT
?PR?_CMP_UNSIGNED_EQ?CMP_UNSIGNED_INT  C SEG    0012H       REL=UNIT
?PR?_CMP_UNSIGNED_GE?CMP_UNSIGNED_INT  C SEG    000FH       REL=UNIT
?PR?_CMP_UNSIGNED_GT?CMP_UNSIGNED_INT  C SEG    000FH       REL=UNIT
?PR?_CMP_UNSIGNED_LE?CMP_UNSIGNED_INT  C SEG    000FH       REL=UNIT
?PR?_CMP_UNSIGNED_LT?CMP_UNSIGNED_INT  C SEG    000FH       REL=UNIT
?PR?_CMP_UNSIGNED_NE?CMP_UNSIGNED_INT  C SEG    0010H       REL=UNIT
AR4 . . . . . . . . . . . . . . . . .  D ADDR   0004H   A   
AR5 . . . . . . . . . . . . . . . . .  D ADDR   0005H   A   
CMP_UNSIGNED_INT. . . . . . . . . . .  N NUMB   -----       
MAIN. . . . . . . . . . . . . . . . .  C ADDR   0000H   R   SEG=?PR?MAIN?CMP_UNSIGNED_INT
_CMP_UNSIGNED_EQ. . . . . . . . . . .  C ADDR   0000H   R   SEG=?PR?_CMP_UNSIGNED_EQ?CMP_UNSIGNED_INT
_CMP_UNSIGNED_GE. . . . . . . . . . .  C ADDR   0000H   R   SEG=?PR?_CMP_UNSIGNED_GE?CMP_UNSIGNED_INT
_CMP_UNSIGNED_GT. . . . . . . . . . .  C ADDR   0000H   R   SEG=?PR?_CMP_UNSIGNED_GT?CMP_UNSIGNED_INT
_CMP_UNSIGNED_LE. . . . . . . . . . .  C ADDR   0000H   R   SEG=?PR?_CMP_UNSIGNED_LE?CMP_UNSIGNED_INT
_CMP_UNSIGNED_LT. . . . . . . . . . .  C ADDR   0000H   R   SEG=?PR?_CMP_UNSIGNED_LT?CMP_UNSIGNED_INT
_CMP_UNSIGNED_NE. . . . . . . . . . .  C ADDR   0000H   R   SEG=?PR?_CMP_UNSIGNED_NE?CMP_UNSIGNED_INT


REGISTER BANK(S) USED: 0 


ASSEMBLY COMPLETE.  0 WARNING(S), 0 ERROR(S)
